target datalayout = "e-m:e-p270:32:32-p271:32:32-p272:64:64-i64:64-i128:128-f80:128-n8:16:32:64-S128"
target triple = "x86_64-pc-linux-gnu"

%struct.radix_process_st = type { i64, i64, i64, ptr, ptr, ptr, %struct.OSSL_TIME, ptr, i32, i32 }
%struct.OSSL_TIME = type { i64 }
%struct.terp_config_st = type { ptr, ptr, ptr, ptr, ptr, %struct.OSSL_TIME }
%struct.terp_st = type { %struct.terp_config_st, ptr, ptr, %struct.srdr_st, ptr, ptr, ptr, ptr, %struct.func_ctx_st, i64, i32, %struct.OSSL_TIME, %struct.OSSL_TIME }
%struct.srdr_st = type { ptr, ptr, ptr, ptr }
%struct.func_ctx_st = type { ptr, i32, i32 }
%struct.radix_thread_st = type { ptr, ptr, ptr, i64, i64, [8 x ptr], [8 x ptr], ptr, ptr, ptr, i32, i32, i64 }
%struct.radix_obj_st = type { ptr, ptr, i8 }

@.str.42 = private unnamed_addr constant [29 x i8] c"../openssl/test/radix/terp.c\00", align 1
@.str.44 = private unnamed_addr constant [33 x i8] c"../openssl/test/radix/quic_ops.c\00", align 1
@.str.45 = private unnamed_addr constant [62 x i8] c"TERP_stk_pop(((fctx->terp)), &(((flags))), sizeof(((flags))))\00", align 1
@check_pending_match = internal global i32 0, align 4
@radix_process = internal global %struct.radix_process_st zeroinitializer, align 8
@.str.55 = private unnamed_addr constant [30 x i8] c"terp->stk_end - terp->stk_cur\00", align 1
@.str.56 = private unnamed_addr constant [8 x i8] c"buf_len\00", align 1
@pending_ssl_obj = internal global ptr null, align 8
@pending_cb_called = internal global i32 0, align 4
@client_hello_ssl_obj = internal global ptr null, align 8
@hello_cb_called = internal global i32 0, align 4
@.str.74 = private unnamed_addr constant [38 x i8] c"../openssl/test/radix/quic_bindings.c\00", align 1
@.str.86 = private unnamed_addr constant [10 x i8] c"NUM_SLOTS\00", align 1
@radix_thread = internal global i32 0, align 4
@.str.93 = private unnamed_addr constant [4 x i8] c"idx\00", align 1
@.str.94 = private unnamed_addr constant [24 x i8] c"*p_ssl = RT()->ssl[idx]\00", align 1
@.str.116 = private unnamed_addr constant [70 x i8] c"TERP_stk_pop(((fctx->terp)), &(((conn_name))), sizeof(((conn_name))))\00", align 1
@.str.117 = private unnamed_addr constant [42 x i8] c"expect_slot_ssl(fctx, (0), &((listener)))\00", align 1
@.str.118 = private unnamed_addr constant [39 x i8] c"RADIX_PROCESS_get_obj(RP(), conn_name)\00", align 1
@.str.119 = private unnamed_addr constant [45 x i8] c"RADIX_PROCESS_set_ssl(RP(), conn_name, conn)\00", align 1
@.str.120 = private unnamed_addr constant [47 x i8] c"Callbacks not called, skipping user_ssl check\0A\00", align 1
@.str.121 = private unnamed_addr constant [16 x i8] c"pending_ssl_obj\00", align 1
@.str.122 = private unnamed_addr constant [21 x i8] c"client_hello_ssl_obj\00", align 1
@.str.123 = private unnamed_addr constant [5 x i8] c"conn\00", align 1

; Function Attrs: inlinehint nounwind uwtable
define internal ptr @lh_RADIX_OBJ_retrieve(ptr noundef %0, ptr noundef %1) #5 {
  %3 = alloca ptr, align 8
  %4 = alloca ptr, align 8
  store ptr %0, ptr %3, align 8, !tbaa !89
  store ptr %1, ptr %4, align 8, !tbaa !51
  %5 = load ptr, ptr %3, align 8, !tbaa !89
  %6 = load ptr, ptr %4, align 8, !tbaa !51
  %7 = call ptr @OPENSSL_LH_retrieve(ptr noundef %5, ptr noundef %6)
  ret ptr %7
}

; Function Attrs: nounwind uwtable
define internal ptr @radix_get_thread() #0 {
  %1 = call ptr @CRYPTO_THREAD_get_local(ptr noundef @radix_thread)
  ret ptr %1
}

; Function Attrs: nounwind uwtable
define internal ptr @RADIX_PROCESS_get_obj(ptr noundef %0, ptr noundef %1) #0 {
  %3 = alloca ptr, align 8
  %4 = alloca ptr, align 8
  %5 = alloca %struct.radix_obj_st, align 8
  store ptr %0, ptr %3, align 8, !tbaa !83
  store ptr %1, ptr %4, align 8, !tbaa !4
  call void @llvm.lifetime.start.p0(i64 24, ptr %5) #9
  %6 = load ptr, ptr %4, align 8, !tbaa !4
  %7 = getelementptr inbounds nuw %struct.radix_obj_st, ptr %5, i32 0, i32 0
  store ptr %6, ptr %7, align 8, !tbaa !88
  %8 = load ptr, ptr %3, align 8, !tbaa !83
  %9 = getelementptr inbounds nuw %struct.radix_process_st, ptr %8, i32 0, i32 5
  %10 = load ptr, ptr %9, align 8, !tbaa !68
  %11 = call ptr @lh_RADIX_OBJ_retrieve(ptr noundef %10, ptr noundef %5)
  call void @llvm.lifetime.end.p0(i64 24, ptr %5) #9
  ret ptr %11
}

; Function Attrs: nounwind uwtable
define internal i32 @expect_slot_ssl(ptr noundef %0, i64 noundef %1, ptr noundef %2) #0 {
  %4 = alloca i32, align 4
  %5 = alloca ptr, align 8
  %6 = alloca i64, align 8
  %7 = alloca ptr, align 8
  store ptr %0, ptr %5, align 8, !tbaa !42
  store i64 %1, ptr %6, align 8, !tbaa !19
  store ptr %2, ptr %7, align 8, !tbaa !90
  %8 = load i64, ptr %6, align 8, !tbaa !19
  %9 = call i32 @test_size_t_lt(ptr noundef @.str.74, i32 noundef 670, ptr noundef @.str.93, ptr noundef @.str.86, i64 noundef %8, i64 noundef 8)
  %10 = icmp ne i32 %9, 0
  br i1 %10, label %11, label %20

11:                                               ; preds = %3
  %12 = call ptr @radix_get_thread()
  %13 = getelementptr inbounds nuw %struct.radix_thread_st, ptr %12, i32 0, i32 6
  %14 = load i64, ptr %6, align 8, !tbaa !19
  %15 = getelementptr inbounds nuw [8 x ptr], ptr %13, i64 0, i64 %14
  %16 = load ptr, ptr %15, align 8, !tbaa !49
  %17 = load ptr, ptr %7, align 8, !tbaa !90
  store ptr %16, ptr %17, align 8, !tbaa !49
  %18 = call i32 @test_ptr(ptr noundef @.str.74, i32 noundef 671, ptr noundef @.str.94, ptr noundef %16)
  %19 = icmp ne i32 %18, 0
  br i1 %19, label %21, label %20

20:                                               ; preds = %11, %3
  store i32 0, ptr %4, align 4
  br label %22

21:                                               ; preds = %11
  store i32 1, ptr %4, align 4
  br label %22

22:                                               ; preds = %21, %20
  %23 = load i32, ptr %4, align 4
  ret i32 %23
}

; Function Attrs: inlinehint nounwind uwtable
define internal i32 @TERP_stk_pop(ptr noundef %0, ptr noundef %1, i64 noundef %2) #5 {
  %4 = alloca i32, align 4
  %5 = alloca ptr, align 8
  %6 = alloca ptr, align 8
  %7 = alloca i64, align 8
  store ptr %0, ptr %5, align 8, !tbaa !75
  store ptr %1, ptr %6, align 8, !tbaa !41
  store i64 %2, ptr %7, align 8, !tbaa !19
  %8 = load ptr, ptr %5, align 8, !tbaa !75
  %9 = getelementptr inbounds nuw %struct.terp_st, ptr %8, i32 0, i32 6
  %10 = load ptr, ptr %9, align 8, !tbaa !26
  %11 = load ptr, ptr %5, align 8, !tbaa !75
  %12 = getelementptr inbounds nuw %struct.terp_st, ptr %11, i32 0, i32 5
  %13 = load ptr, ptr %12, align 8, !tbaa !32
  %14 = ptrtoint ptr %10 to i64
  %15 = ptrtoint ptr %13 to i64
  %16 = sub i64 %14, %15
  %17 = load i64, ptr %7, align 8, !tbaa !19
  %18 = call i32 @test_size_t_ge(ptr noundef @.str.42, i32 noundef 629, ptr noundef @.str.55, ptr noundef @.str.56, i64 noundef %16, i64 noundef %17)
  %19 = icmp ne i32 %18, 0
  br i1 %19, label %21, label %20

20:                                               ; preds = %3
  store i32 0, ptr %4, align 4
  br label %32

21:                                               ; preds = %3
  %22 = load ptr, ptr %6, align 8, !tbaa !41
  %23 = load ptr, ptr %5, align 8, !tbaa !75
  %24 = getelementptr inbounds nuw %struct.terp_st, ptr %23, i32 0, i32 5
  %25 = load ptr, ptr %24, align 8, !tbaa !32
  %26 = load i64, ptr %7, align 8, !tbaa !19
  call void @llvm.memcpy.p0.p0.i64(ptr align 1 %22, ptr align 1 %25, i64 %26, i1 false)
  %27 = load i64, ptr %7, align 8, !tbaa !19
  %28 = load ptr, ptr %5, align 8, !tbaa !75
  %29 = getelementptr inbounds nuw %struct.terp_st, ptr %28, i32 0, i32 5
  %30 = load ptr, ptr %29, align 8, !tbaa !32
  %31 = getelementptr inbounds nuw i8, ptr %30, i64 %27
  store ptr %31, ptr %29, align 8, !tbaa !32
  store i32 1, ptr %4, align 4
  br label %32

32:                                               ; preds = %21, %20
  %33 = load i32, ptr %4, align 4
  ret i32 %33
}

; Function Attrs: nounwind uwtable
define internal i32 @hf_accept_conn(ptr noundef %0) #0 {
  %2 = alloca ptr, align 8
  %3 = alloca i32, align 4
  %4 = alloca ptr, align 8
  %5 = alloca i64, align 8
  %6 = alloca ptr, align 8
  %7 = alloca ptr, align 8
  store ptr %0, ptr %2, align 8, !tbaa !42
  call void @llvm.lifetime.start.p0(i64 4, ptr %3) #9
  store i32 0, ptr %3, align 4, !tbaa !9
  call void @llvm.lifetime.start.p0(i64 8, ptr %4) #9
  call void @llvm.lifetime.start.p0(i64 8, ptr %5) #9
  call void @llvm.lifetime.start.p0(i64 8, ptr %6) #9
  call void @llvm.lifetime.start.p0(i64 8, ptr %7) #9
  br label %8

8:                                                ; preds = %1
  br label %9

9:                                                ; preds = %8
  call void @llvm.memset.p0.i64(ptr align 8 %5, i8 0, i64 8, i1 false)
  %10 = load ptr, ptr %2, align 8, !tbaa !42
  %11 = getelementptr inbounds nuw %struct.func_ctx_st, ptr %10, i32 0, i32 0
  %12 = load ptr, ptr %11, align 8, !tbaa !46
  %13 = call i32 @TERP_stk_pop(ptr noundef %12, ptr noundef %5, i64 noundef 8)
  %14 = icmp ne i32 %13, 0
  %15 = zext i1 %14 to i32
  %16 = call i32 @test_true(ptr noundef @.str.44, i32 noundef 328, ptr noundef @.str.45, i32 noundef %15)
  %17 = icmp ne i32 %16, 0
  br i1 %17, label %19, label %18

18:                                               ; preds = %9
  br label %102

19:                                               ; preds = %9
  br label %20

20:                                               ; preds = %19
  br label %21

21:                                               ; preds = %20
  br label %22

22:                                               ; preds = %21
  call void @llvm.memset.p0.i64(ptr align 8 %4, i8 0, i64 8, i1 false)
  %23 = load ptr, ptr %2, align 8, !tbaa !42
  %24 = getelementptr inbounds nuw %struct.func_ctx_st, ptr %23, i32 0, i32 0
  %25 = load ptr, ptr %24, align 8, !tbaa !46
  %26 = call i32 @TERP_stk_pop(ptr noundef %25, ptr noundef %4, i64 noundef 8)
  %27 = icmp ne i32 %26, 0
  %28 = zext i1 %27 to i32
  %29 = call i32 @test_true(ptr noundef @.str.44, i32 noundef 328, ptr noundef @.str.116, i32 noundef %28)
  %30 = icmp ne i32 %29, 0
  br i1 %30, label %32, label %31

31:                                               ; preds = %22
  br label %102

32:                                               ; preds = %22
  br label %33

33:                                               ; preds = %32
  br label %34

34:                                               ; preds = %33
  br label %35

35:                                               ; preds = %34
  br label %36

36:                                               ; preds = %35
  br label %37

37:                                               ; preds = %36
  store ptr null, ptr %6, align 8, !tbaa !49
  %38 = load ptr, ptr %2, align 8, !tbaa !42
  %39 = call i32 @expect_slot_ssl(ptr noundef %38, i64 noundef 0, ptr noundef %6)
  %40 = icmp ne i32 %39, 0
  %41 = zext i1 %40 to i32
  %42 = call i32 @test_true(ptr noundef @.str.44, i32 noundef 329, ptr noundef @.str.117, i32 noundef %41)
  %43 = icmp ne i32 %42, 0
  br i1 %43, label %45, label %44

44:                                               ; preds = %37
  br label %102

45:                                               ; preds = %37
  br label %46

46:                                               ; preds = %45
  br label %47

47:                                               ; preds = %46
  %48 = load ptr, ptr %4, align 8, !tbaa !4
  %49 = call ptr @RADIX_PROCESS_get_obj(ptr noundef @radix_process, ptr noundef %48)
  %50 = call i32 @test_ptr_null(ptr noundef @.str.44, i32 noundef 331, ptr noundef @.str.118, ptr noundef %49)
  %51 = icmp ne i32 %50, 0
  br i1 %51, label %53, label %52

52:                                               ; preds = %47
  br label %102

53:                                               ; preds = %47
  %54 = load ptr, ptr %6, align 8, !tbaa !49
  %55 = load i64, ptr %5, align 8, !tbaa !19
  %56 = call ptr @SSL_accept_connection(ptr noundef %54, i64 noundef %55)
  store ptr %56, ptr %7, align 8, !tbaa !49
  %57 = load ptr, ptr %7, align 8, !tbaa !49
  %58 = icmp eq ptr %57, null
  br i1 %58, label %59, label %65

59:                                               ; preds = %53
  br label %60

60:                                               ; preds = %59
  store i32 2, ptr %3, align 4, !tbaa !9
  %61 = load ptr, ptr %2, align 8, !tbaa !42
  %62 = getelementptr inbounds nuw %struct.func_ctx_st, ptr %61, i32 0, i32 1
  store i32 1, ptr %62, align 8, !tbaa !63
  br label %102

63:                                               ; No predecessors!
  br label %64

64:                                               ; preds = %63
  br label %65

65:                                               ; preds = %64, %53
  %66 = load ptr, ptr %4, align 8, !tbaa !4
  %67 = load ptr, ptr %7, align 8, !tbaa !49
  %68 = call i32 @RADIX_PROCESS_set_ssl(ptr noundef @radix_process, ptr noundef %66, ptr noundef %67)
  %69 = icmp ne i32 %68, 0
  %70 = zext i1 %69 to i32
  %71 = call i32 @test_true(ptr noundef @.str.44, i32 noundef 338, ptr noundef @.str.119, i32 noundef %70)
  %72 = icmp ne i32 %71, 0
  br i1 %72, label %75, label %73

73:                                               ; preds = %65
  %74 = load ptr, ptr %7, align 8, !tbaa !49
  call void @SSL_free(ptr noundef %74)
  br label %102

75:                                               ; preds = %65
  %76 = load i32, ptr @check_pending_match, align 4, !tbaa !9
  %77 = icmp ne i32 %76, 0
  br i1 %77, label %78, label %101

78:                                               ; preds = %75
  %79 = load i32, ptr @pending_cb_called, align 4, !tbaa !9
  %80 = icmp ne i32 %79, 0
  br i1 %80, label %81, label %84

81:                                               ; preds = %78
  %82 = load i32, ptr @hello_cb_called, align 4, !tbaa !9
  %83 = icmp ne i32 %82, 0
  br i1 %83, label %85, label %84

84:                                               ; preds = %81, %78
  call void (ptr, i32, ptr, ...) @test_info(ptr noundef @.str.44, i32 noundef 345, ptr noundef @.str.120)
  br label %100

85:                                               ; preds = %81
  %86 = load ptr, ptr @pending_ssl_obj, align 8, !tbaa !49
  %87 = load ptr, ptr @client_hello_ssl_obj, align 8, !tbaa !49
  %88 = call i32 @test_ptr_eq(ptr noundef @.str.44, i32 noundef 347, ptr noundef @.str.121, ptr noundef @.str.122, ptr noundef %86, ptr noundef %87)
  %89 = icmp ne i32 %88, 0
  br i1 %89, label %92, label %90

90:                                               ; preds = %85
  %91 = load ptr, ptr %7, align 8, !tbaa !49
  call void @SSL_free(ptr noundef %91)
  br label %102

92:                                               ; preds = %85
  %93 = load ptr, ptr @pending_ssl_obj, align 8, !tbaa !49
  %94 = load ptr, ptr %7, align 8, !tbaa !49
  %95 = call i32 @test_ptr_eq(ptr noundef @.str.44, i32 noundef 351, ptr noundef @.str.121, ptr noundef @.str.123, ptr noundef %93, ptr noundef %94)
  %96 = icmp ne i32 %95, 0
  br i1 %96, label %99, label %97

97:                                               ; preds = %92
  %98 = load ptr, ptr %7, align 8, !tbaa !49
  call void @SSL_free(ptr noundef %98)
  br label %102

99:                                               ; preds = %92
  br label %100

100:                                              ; preds = %99, %84
  store ptr null, ptr @client_hello_ssl_obj, align 8, !tbaa !49
  store ptr null, ptr @pending_ssl_obj, align 8, !tbaa !49
  store i32 0, ptr @check_pending_match, align 4, !tbaa !9
  store i32 0, ptr @hello_cb_called, align 4, !tbaa !9
  store i32 0, ptr @pending_cb_called, align 4, !tbaa !9
  br label %101

101:                                              ; preds = %100, %75
  store i32 1, ptr %3, align 4, !tbaa !9
  br label %102

102:                                              ; preds = %101, %97, %90, %73, %60, %52, %44, %31, %18
  %103 = load i32, ptr %3, align 4, !tbaa !9
  call void @llvm.lifetime.end.p0(i64 8, ptr %7) #9
  call void @llvm.lifetime.end.p0(i64 8, ptr %6) #9
  call void @llvm.lifetime.end.p0(i64 8, ptr %5) #9
  call void @llvm.lifetime.end.p0(i64 8, ptr %4) #9
  call void @llvm.lifetime.end.p0(i64 4, ptr %3) #9
  ret i32 %103
}