; Function Attrs: nounwind uwtable
define internal range(i32 0, 3) i32 @hf_accept_conn(ptr noundef captures(none) %0) #1 {
  %2 = alloca %struct.radix_obj_st, align 8
  %3 = load ptr, ptr %0, align 8, !tbaa !107
  %4 = getelementptr inbounds nuw i8, ptr %3, i64 112
  %5 = load ptr, ptr %4, align 8, !tbaa !100
  %6 = getelementptr inbounds nuw i8, ptr %3, i64 104
  %7 = load ptr, ptr %6, align 8, !tbaa !95
  %8 = ptrtoint ptr %5 to i64
  %9 = ptrtoint ptr %7 to i64
  %10 = sub i64 %8, %9
  %11 = tail call i32 @test_size_t_ge(ptr noundef nonnull @.str.42, i32 noundef 629, ptr noundef nonnull @.str.55, ptr noundef nonnull @.str.56, i64 noundef %10, i64 noundef 8) #12
  %.not.i = icmp eq i32 %11, 0
  br i1 %.not.i, label %TERP_stk_pop.exit, label %12

12:                                               ; preds = %1
  %13 = load ptr, ptr %6, align 8, !tbaa !95
  %14 = load i64, ptr %13, align 1
  %15 = getelementptr inbounds nuw i8, ptr %13, i64 8
  store ptr %15, ptr %6, align 8, !tbaa !95
  br label %TERP_stk_pop.exit

TERP_stk_pop.exit:                                ; preds = %1, %12
  %.028 = phi i64 [ 0, %1 ], [ %14, %12 ]
  %.0.i = phi i32 [ 0, %1 ], [ 1, %12 ]
  %16 = tail call i32 @test_true(ptr noundef nonnull @.str.44, i32 noundef 328, ptr noundef nonnull @.str.45, i32 noundef %.0.i) #12
  %.not = icmp eq i32 %16, 0
  br i1 %.not, label %67, label %17

17:                                               ; preds = %TERP_stk_pop.exit
  %18 = load ptr, ptr %0, align 8, !tbaa !107
  %19 = getelementptr inbounds nuw i8, ptr %18, i64 112
  %20 = load ptr, ptr %19, align 8, !tbaa !100
  %21 = getelementptr inbounds nuw i8, ptr %18, i64 104
  %22 = load ptr, ptr %21, align 8, !tbaa !95
  %23 = ptrtoint ptr %20 to i64
  %24 = ptrtoint ptr %22 to i64
  %25 = sub i64 %23, %24
  %26 = tail call i32 @test_size_t_ge(ptr noundef nonnull @.str.42, i32 noundef 629, ptr noundef nonnull @.str.55, ptr noundef nonnull @.str.56, i64 noundef %25, i64 noundef 8) #12
  %.not.i20 = icmp eq i32 %26, 0
  br i1 %.not.i20, label %TERP_stk_pop.exit22, label %27

27:                                               ; preds = %17
  %28 = load ptr, ptr %21, align 8, !tbaa !95
  %29 = load i64, ptr %28, align 1
  %30 = inttoptr i64 %29 to ptr
  %31 = getelementptr inbounds nuw i8, ptr %28, i64 8
  store ptr %31, ptr %21, align 8, !tbaa !95
  br label %TERP_stk_pop.exit22

TERP_stk_pop.exit22:                              ; preds = %17, %27
  %.029 = phi ptr [ null, %17 ], [ %30, %27 ]
  %.0.i21 = phi i32 [ 0, %17 ], [ 1, %27 ]
  %32 = tail call i32 @test_true(ptr noundef nonnull @.str.44, i32 noundef 328, ptr noundef nonnull @.str.116, i32 noundef %.0.i21) #12
  %.not14 = icmp eq i32 %32, 0
  br i1 %.not14, label %67, label %33

33:                                               ; preds = %TERP_stk_pop.exit22
  %34 = tail call i32 @test_size_t_lt(ptr noundef nonnull @.str.74, i32 noundef 670, ptr noundef nonnull @.str.93, ptr noundef nonnull @.str.86, i64 noundef 0, i64 noundef 8) #12
  %.not.i23 = icmp eq i32 %34, 0
  br i1 %.not.i23, label %expect_slot_ssl.exit, label %35

35:                                               ; preds = %33
  %36 = tail call ptr @CRYPTO_THREAD_get_local(ptr noundef nonnull @radix_thread) #12
  %37 = getelementptr inbounds nuw i8, ptr %36, i64 104
  %38 = load ptr, ptr %37, align 8, !tbaa !49
  %39 = tail call i32 @test_ptr(ptr noundef nonnull @.str.74, i32 noundef 671, ptr noundef nonnull @.str.94, ptr noundef %38) #12
  %.not3.i = icmp ne i32 %39, 0
  %spec.select.i = zext i1 %.not3.i to i32
  br label %expect_slot_ssl.exit

expect_slot_ssl.exit:                             ; preds = %33, %35
  %.027 = phi ptr [ null, %33 ], [ %38, %35 ]
  %.0.i24 = phi i32 [ 0, %33 ], [ %spec.select.i, %35 ]
  %40 = tail call i32 @test_true(ptr noundef nonnull @.str.44, i32 noundef 329, ptr noundef nonnull @.str.117, i32 noundef %.0.i24) #12
  %.not15 = icmp eq i32 %40, 0
  br i1 %.not15, label %67, label %41

41:                                               ; preds = %expect_slot_ssl.exit
  call void @llvm.lifetime.start.p0(i64 24, ptr nonnull %2) #12
  store ptr %.029, ptr %2, align 8, !tbaa !46
  %42 = load ptr, ptr getelementptr inbounds nuw (i8, ptr @radix_process, i64 40), align 8, !tbaa !18
  %43 = call ptr @OPENSSL_LH_retrieve(ptr noundef %42, ptr noundef nonnull %2) #12
  call void @llvm.lifetime.end.p0(i64 24, ptr nonnull %2) #12
  %44 = call i32 @test_ptr_null(ptr noundef nonnull @.str.44, i32 noundef 331, ptr noundef nonnull @.str.118, ptr noundef %43) #12
  %.not16 = icmp eq i32 %44, 0
  br i1 %.not16, label %67, label %45

45:                                               ; preds = %41
  %46 = call ptr @SSL_accept_connection(ptr noundef %.027, i64 noundef %.028) #12
  %47 = icmp eq ptr %46, null
  br i1 %47, label %48, label %50

48:                                               ; preds = %45
  %49 = getelementptr inbounds nuw i8, ptr %0, i64 8
  store i32 1, ptr %49, align 8, !tbaa !110
  br label %67

50:                                               ; preds = %45
  %51 = call fastcc i32 @RADIX_PROCESS_set_ssl(ptr noundef %.029, ptr noundef nonnull %46)
  %52 = call i32 @test_true(ptr noundef nonnull @.str.44, i32 noundef 338, ptr noundef nonnull @.str.119, i32 noundef %51) #12
  %.not17 = icmp eq i32 %52, 0
  br i1 %.not17, label %53, label %54

53:                                               ; preds = %50
  call void @SSL_free(ptr noundef nonnull %46) #12
  br label %67

54:                                               ; preds = %50
  %.b = load i1, ptr @check_pending_match, align 4
  br i1 %.b, label %55, label %67

55:                                               ; preds = %54
  %.b12 = load i1, ptr @pending_cb_called, align 4
  %.b13 = load i1, ptr @hello_cb_called, align 4
  %or.cond = select i1 %.b12, i1 %.b13, i1 false
  br i1 %or.cond, label %57, label %56

56:                                               ; preds = %55
  call void (ptr, i32, ptr, ...) @test_info(ptr noundef nonnull @.str.44, i32 noundef 345, ptr noundef nonnull @.str.120) #12
  br label %66

57:                                               ; preds = %55
  %58 = load ptr, ptr @pending_ssl_obj, align 8, !tbaa !49
  %59 = load ptr, ptr @client_hello_ssl_obj, align 8, !tbaa !49
  %60 = call i32 @test_ptr_eq(ptr noundef nonnull @.str.44, i32 noundef 347, ptr noundef nonnull @.str.121, ptr noundef nonnull @.str.122, ptr noundef %58, ptr noundef %59) #12
  %.not18 = icmp eq i32 %60, 0
  br i1 %.not18, label %61, label %62

61:                                               ; preds = %57
  call void @SSL_free(ptr noundef nonnull %46) #12
  br label %67

62:                                               ; preds = %57
  %63 = load ptr, ptr @pending_ssl_obj, align 8, !tbaa !49
  %64 = call i32 @test_ptr_eq(ptr noundef nonnull @.str.44, i32 noundef 351, ptr noundef nonnull @.str.121, ptr noundef nonnull @.str.123, ptr noundef %63, ptr noundef nonnull %46) #12
  %.not19 = icmp eq i32 %64, 0
  br i1 %.not19, label %65, label %66

65:                                               ; preds = %62
  call void @SSL_free(ptr noundef nonnull %46) #12
  br label %67

66:                                               ; preds = %62, %56
  store ptr null, ptr @client_hello_ssl_obj, align 8, !tbaa !49
  store ptr null, ptr @pending_ssl_obj, align 8, !tbaa !49
  store i1 false, ptr @check_pending_match, align 4
  store i1 false, ptr @hello_cb_called, align 4
  store i1 false, ptr @pending_cb_called, align 4
  br label %67

67:                                               ; preds = %54, %66, %41, %expect_slot_ssl.exit, %TERP_stk_pop.exit22, %TERP_stk_pop.exit, %65, %61, %53, %48
  %.0 = phi i32 [ 2, %48 ], [ 0, %65 ], [ 0, %61 ], [ 0, %53 ], [ 0, %41 ], [ 0, %expect_slot_ssl.exit ], [ 0, %TERP_stk_pop.exit22 ], [ 0, %TERP_stk_pop.exit ], [ 1, %66 ], [ 1, %54 ]
  ret i32 %.0
}